target datalayout = "e-m:e-p270:32:32-p271:32:32-p272:64:64-i64:64-i128:128-f80:128-n8:16:32:64-S128"
target triple = "x86_64-pc-linux-gnu"

; Function Attrs: nounwind uwtable
define internal i32 @_listZiplistEntryConvertAndValidate(ptr noundef %0, i32 noundef %1, ptr noundef %2) #0 {
  %4 = alloca i32, align 4
  %5 = alloca ptr, align 8
  %6 = alloca i32, align 4
  %7 = alloca ptr, align 8
  %8 = alloca ptr, align 8
  %9 = alloca i32, align 4
  %10 = alloca i64, align 8
  %11 = alloca [32 x i8], align 16
  %12 = alloca ptr, align 8
  %13 = alloca i32, align 4
  store ptr %0, ptr %5, align 8, !tbaa !9
  store i32 %1, ptr %6, align 4, !tbaa !5
  store ptr %2, ptr %7, align 8, !tbaa !55
  call void @llvm.lifetime.start.p0(i64 8, ptr %8) #15
  call void @llvm.lifetime.start.p0(i64 4, ptr %9) #15
  call void @llvm.lifetime.start.p0(i64 8, ptr %10) #15
  call void @llvm.lifetime.start.p0(i64 32, ptr %11) #15
  call void @llvm.memset.p0.i64(ptr align 16 %11, i8 0, i64 32, i1 false)
  call void @llvm.lifetime.start.p0(i64 8, ptr %12) #15
  %14 = load ptr, ptr %7, align 8, !tbaa !55
  store ptr %14, ptr %12, align 8, !tbaa !110
  %15 = load ptr, ptr %5, align 8, !tbaa !9
  %16 = call i32 @ziplistGet(ptr noundef %15, ptr noundef %8, ptr noundef %9, ptr noundef %10)
  %17 = icmp ne i32 %16, 0
  br i1 %17, label %19, label %18

18:                                               ; preds = %3
  store i32 0, ptr %4, align 4
  store i32 1, ptr %13, align 4
  br label %33

19:                                               ; preds = %3
  %20 = load ptr, ptr %8, align 8, !tbaa !9
  %21 = icmp ne ptr %20, null
  br i1 %21, label %27, label %22

22:                                               ; preds = %19
  %23 = getelementptr inbounds [32 x i8], ptr %11, i64 0, i64 0
  %24 = load i64, ptr %10, align 8, !tbaa !68
  %25 = call i32 @ll2string(ptr noundef %23, i64 noundef 32, i64 noundef %24)
  store i32 %25, ptr %9, align 4, !tbaa !5
  %26 = getelementptr inbounds [32 x i8], ptr %11, i64 0, i64 0
  store ptr %26, ptr %8, align 8, !tbaa !9
  br label %27

27:                                               ; preds = %22, %19
  %28 = load ptr, ptr %12, align 8, !tbaa !110
  %29 = load ptr, ptr %8, align 8, !tbaa !9
  %30 = load i32, ptr %9, align 4, !tbaa !5
  %31 = zext i32 %30 to i64
  %32 = call i32 @quicklistPushTail(ptr noundef %28, ptr noundef %29, i64 noundef %31)
  store i32 1, ptr %4, align 4
  store i32 1, ptr %13, align 4
  br label %33

33:                                               ; preds = %27, %18
  call void @llvm.lifetime.end.p0(i64 8, ptr %12) #15
  call void @llvm.lifetime.end.p0(i64 32, ptr %11) #15
  call void @llvm.lifetime.end.p0(i64 8, ptr %10) #15
  call void @llvm.lifetime.end.p0(i64 4, ptr %9) #15
  call void @llvm.lifetime.end.p0(i64 8, ptr %8) #15
  %34 = load i32, ptr %4, align 4
  ret i32 %34
}