; Function Attrs: nounwind uwtable
define internal range(i32 0, 2) i32 @_listZiplistEntryConvertAndValidate(ptr noundef %0, i32 %1, ptr noundef %2) #0 {
  %4 = alloca ptr, align 8
  %5 = alloca i32, align 4
  %6 = alloca i64, align 8
  %7 = alloca [32 x i8], align 16
  call void @llvm.lifetime.start.p0(i64 8, ptr nonnull %4) #23
  call void @llvm.lifetime.start.p0(i64 4, ptr nonnull %5) #23
  call void @llvm.lifetime.start.p0(i64 8, ptr nonnull %6) #23
  call void @llvm.lifetime.start.p0(i64 32, ptr nonnull %7) #23
  call void @llvm.memset.p0.i64(ptr noundef nonnull align 16 dereferenceable(32) %7, i8 0, i64 32, i1 false)
  %8 = call i32 @ziplistGet(ptr noundef %0, ptr noundef nonnull %4, ptr noundef nonnull %5, ptr noundef nonnull %6) #23
  %.not = icmp eq i32 %8, 0
  br i1 %.not, label %19, label %9

9:                                                ; preds = %3
  %10 = load ptr, ptr %4, align 8, !tbaa !52
  %.not3 = icmp eq ptr %10, null
  br i1 %.not3, label %11, label %._crit_edge

._crit_edge:                                      ; preds = %9
  %.pre = load i32, ptr %5, align 4, !tbaa !51
  br label %14

11:                                               ; preds = %9
  %12 = load i64, ptr %6, align 8, !tbaa !62
  %13 = call i32 @ll2string(ptr noundef nonnull %7, i64 noundef 32, i64 noundef %12) #23
  store i32 %13, ptr %5, align 4, !tbaa !51
  store ptr %7, ptr %4, align 8, !tbaa !52
  br label %14

14:                                               ; preds = %._crit_edge, %11
  %15 = phi i32 [ %13, %11 ], [ %.pre, %._crit_edge ]
  %16 = phi ptr [ %7, %11 ], [ %10, %._crit_edge ]
  %17 = zext i32 %15 to i64
  %18 = call i32 @quicklistPushTail(ptr noundef %2, ptr noundef nonnull %16, i64 noundef %17) #23
  br label %19

19:                                               ; preds = %3, %14
  %.0 = phi i32 [ 1, %14 ], [ 0, %3 ]
  call void @llvm.lifetime.end.p0(i64 32, ptr nonnull %7) #23
  call void @llvm.lifetime.end.p0(i64 8, ptr nonnull %6) #23
  call void @llvm.lifetime.end.p0(i64 4, ptr nonnull %5) #23
  call void @llvm.lifetime.end.p0(i64 8, ptr nonnull %4) #23
  ret i32 %.0
}